target datalayout = "e-m:e-p270:32:32-p271:32:32-p272:64:64-i64:64-i128:128-f80:128-n8:16:32:64-S128"
target triple = "x86_64-pc-linux-gnu"

%struct.Curl_cftype = type { ptr, i32, i32, ptr, ptr, ptr, ptr, ptr, ptr, ptr, ptr, ptr, ptr, ptr, ptr, ptr }
%struct.Curl_sockaddr_ex = type { i32, i32, i32, i32, %union.anon }
%union.anon = type { %struct.Curl_sockaddr_storage }
%struct.Curl_sockaddr_storage = type { %union.anon.0 }
%union.anon.0 = type { %struct.sockaddr_storage }
%struct.sockaddr_storage = type { i16, [118 x i8], i64 }
%struct.Curl_easy = type { i32, i64, i64, ptr, %struct.Curl_llist_node, %struct.Curl_llist_node, i32, i32, %struct.Curl_message, %struct.easy_pollset, %struct.Names, ptr, ptr, ptr, ptr, %struct.SingleRequest, %struct.UserDefined, ptr, ptr, ptr, %struct.Progress, %struct.UrlState, ptr, %struct.PureInfo, %struct.curl_tlssessioninfo }
%struct.Curl_llist_node = type { ptr, ptr, ptr, ptr }
%struct.Curl_message = type { %struct.Curl_llist_node, %struct.CURLMsg }
%struct.CURLMsg = type { i32, ptr, %union.anon.3 }
%union.anon.3 = type { ptr }
%struct.easy_pollset = type { [5 x i32], i32, [5 x i8] }
%struct.Names = type { ptr, i32 }
%struct.SingleRequest = type <{ i64, i64, i64, i64, %struct.curltime, i32, i32, i32, i32, i64, i32, i32, i8, i8, [2 x i8], i32, ptr, ptr, %struct.bufq, i64, i64, ptr, ptr, %union.anon.4, ptr, i8, i32, [3 x i8] }>
%struct.curltime = type { i64, i32 }
%struct.bufq = type { ptr, ptr, ptr, ptr, i64, i64, i64, i32 }
%union.anon.4 = type { ptr }
%struct.UserDefined = type <{ ptr, ptr, ptr, ptr, ptr, ptr, i64, i64, i64, ptr, ptr, i64, ptr, ptr, ptr, ptr, ptr, ptr, ptr, ptr, ptr, ptr, ptr, ptr, ptr, ptr, ptr, ptr, ptr, ptr, ptr, ptr, ptr, ptr, ptr, i64, i64, i64, i64, i64, i64, i64, i64, i64, ptr, ptr, %struct.curl_mimepart, ptr, ptr, ptr, i64, %struct.ssl_config_data, %struct.ssl_config_data, ptr, i16, i8, i8, %struct.ssl_general_config, i32, i32, i32, [4 x i8], ptr, ptr, i64, i32, i8, i8, i8, i8, ptr, ptr, ptr, i32, [4 x i8], [74 x ptr], [8 x ptr], i32, i32, i32, [4 x i8], ptr, i32, [4 x i8], ptr, ptr, ptr, ptr, ptr, i32, i32, i32, i32, i32, i32, i32, i32, i64, ptr, ptr, i64, ptr, i64, ptr, ptr, ptr, ptr, i32, i16, i16, i16, i8, i8, i8, i8, i8, i8, i8, i8, i64, [6 x i8] }>
%struct.curl_mimepart = type { ptr, ptr, i32, i32, ptr, ptr, ptr, ptr, ptr, ptr, ptr, ptr, ptr, ptr, ptr, i64, %struct.mime_state, ptr, %struct.mime_encoder_state, i64 }
%struct.mime_state = type { i32, ptr, i64 }
%struct.mime_encoder_state = type { i64, i64, i64, [256 x i8] }
%struct.ssl_config_data = type { %struct.ssl_primary_config, i64, ptr, ptr, ptr, ptr, ptr, ptr, ptr, i16 }
%struct.ssl_primary_config = type { ptr, ptr, ptr, ptr, ptr, ptr, ptr, ptr, ptr, ptr, ptr, ptr, ptr, ptr, i8, i32, i8, i8 }
%struct.ssl_general_config = type { i32 }
%struct.Progress = type { i64, %struct.pgrs_dir, %struct.pgrs_dir, i64, i64, i32, i32, i64, i64, i64, i64, i64, i64, i64, i64, i64, %struct.curltime, %struct.curltime, %struct.curltime, %struct.curltime, %struct.curltime, [6 x i64], [6 x %struct.curltime], i32, i8 }
%struct.pgrs_dir = type { i64, i64, i64, %struct.pgrs_measure }
%struct.pgrs_measure = type { %struct.curltime, i64 }
%struct.UrlState = type { %struct.curltime, i64, i64, %struct.dynbuf, ptr, i64, ptr, i32, i32, i32, ptr, i32, i64, i32, ptr, %struct.digestdata, %struct.digestdata, %struct.auth, %struct.auth, %struct.Curl_async, ptr, i8, %struct.curltime, %struct.Curl_tree, %struct.Curl_llist, [15 x %struct.time_node], ptr, ptr, i64, i64, i64, i64, [32 x i8], i64, ptr, ptr, ptr, %struct.urlpieces, ptr, ptr, ptr, ptr, ptr, i64, %struct.dynbuf, %struct.Curl_llist, [2 x %struct.curl_header], ptr, i32, ptr, ptr, %struct.store_netrc, %struct.dynamically_allocated_data, i8, i8, i8, i8, i32 }
%struct.digestdata = type { ptr, ptr, ptr, ptr, ptr, ptr, i32, i8, i8 }
%struct.auth = type { i64, i64, i64, i8 }
%struct.Curl_async = type { ptr, ptr, ptr, ptr, i32, i32, i8 }
%struct.Curl_tree = type { ptr, ptr, ptr, ptr, %struct.curltime, ptr }
%struct.time_node = type { %struct.Curl_llist_node, %struct.curltime, i32 }
%struct.urlpieces = type { ptr, ptr, ptr, ptr, ptr, ptr, ptr, ptr }
%struct.dynbuf = type { ptr, i64, i64, i64 }
%struct.Curl_llist = type { ptr, ptr, ptr, i64 }
%struct.curl_header = type { ptr, ptr, i64, i64, i32, ptr }
%struct.store_netrc = type { %struct.dynbuf, ptr, i8 }
%struct.dynamically_allocated_data = type { ptr, ptr, ptr, ptr, ptr, ptr, ptr, ptr, ptr, ptr, ptr, ptr, ptr, ptr }
%struct.PureInfo = type { i32, i32, i32, i64, i64, i64, i64, i64, i64, i64, ptr, ptr, i64, i32, %struct.ip_quadruple, i32, ptr, i32, %struct.curl_certinfo, i32, i8 }
%struct.ip_quadruple = type { [46 x i8], [46 x i8], i32, i32 }
%struct.curl_certinfo = type { i32, ptr }
%struct.curl_tlssessioninfo = type { i32, ptr }
%struct.connectdata = type { %struct.Curl_llist_node, ptr, ptr, i64, ptr, i64, ptr, ptr, %struct.hostname, ptr, ptr, %struct.hostname, %struct.proxy_info, %struct.proxy_info, %struct.ip_quadruple, %struct.ip_quadruple, ptr, ptr, ptr, ptr, ptr, %struct.curltime, %struct.curltime, %struct.curltime, [2 x i32], [2 x ptr], [2 x ptr], [2 x ptr], %struct.anon, %struct.easy_pollset, %struct.ssl_primary_config, %struct.ssl_primary_config, %struct.ConnectBits, ptr, ptr, %struct.curltime, i32, i32, %struct.Curl_llist, i32, i32, %struct.ntlmdata, %struct.ntlmdata, %union.anon.2, ptr, ptr, i16, i32, i32, i32, i32, i16, i16, i8, i8, i8, i8, i8, i8, i8 }
%struct.hostname = type { ptr, ptr, ptr, ptr }
%struct.proxy_info = type { %struct.hostname, i32, i8, ptr, ptr }
%struct.anon = type { [2 x %struct.curltime], i32 }
%struct.ConnectBits = type { i64 }
%struct.ntlmdata = type { i32, [8 x i8], i32, ptr }
%union.anon.2 = type { %struct.ftp_conn }
%struct.ftp_conn = type { %struct.pingpong, ptr, ptr, ptr, ptr, ptr, ptr, ptr, i8, i64, ptr, i64, i32, i32, i32, i32, i32, i16, i8, i8, i8, i8, i8 }
%struct.pingpong = type { i64, i8, ptr, i64, i64, %struct.curltime, i64, %struct.dynbuf, %struct.dynbuf, i64, i64, ptr, ptr }
%struct.Curl_cfilter = type { ptr, ptr, ptr, ptr, i32, i8 }
%struct.curl_trc_feat = type { ptr, i32 }
%struct.cf_socket_ctx = type { i32, %struct.Curl_sockaddr_ex, i32, %struct.ip_quadruple, %struct.curltime, %struct.curltime, %struct.curltime, i32, i8 }

@Curl_cfree = external global ptr, align 8
@Curl_ccalloc = external global ptr, align 8
@.str.4 = private unnamed_addr constant [44 x i8] c"set filter for listen socket fd=%d ip=%s:%d\00", align 1

; Function Attrs: nounwind uwtable
define hidden i32 @Curl_conn_tcp_listen_set(ptr noundef %0, ptr noundef %1, i32 noundef %2, ptr noundef %3) #0 {
  %5 = alloca ptr, align 8
  %6 = alloca ptr, align 8
  %7 = alloca i32, align 4
  %8 = alloca ptr, align 8
  %9 = alloca i32, align 4
  %10 = alloca ptr, align 8
  %11 = alloca ptr, align 8
  %12 = alloca %struct.curltime, align 8
  store ptr %0, ptr %5, align 8, !tbaa !23
  store ptr %1, ptr %6, align 8, !tbaa !109
  store i32 %2, ptr %7, align 4, !tbaa !10
  store ptr %3, ptr %8, align 8, !tbaa !25
  call void @llvm.lifetime.start.p0(i64 4, ptr %9) #9
  call void @llvm.lifetime.start.p0(i64 8, ptr %10) #9
  store ptr null, ptr %10, align 8, !tbaa !118
  call void @llvm.lifetime.start.p0(i64 8, ptr %11) #9
  store ptr null, ptr %11, align 8, !tbaa !123
  %13 = load ptr, ptr %5, align 8, !tbaa !23
  %14 = load ptr, ptr %6, align 8, !tbaa !109
  %15 = load i32, ptr %7, align 4, !tbaa !10
  call void @Curl_conn_cf_discard_all(ptr noundef %13, ptr noundef %14, i32 noundef %15)
  br label %16

16:                                               ; preds = %4
  br label %17

17:                                               ; preds = %16
  br label %18

18:                                               ; preds = %17
  %19 = load ptr, ptr @Curl_ccalloc, align 8, !tbaa !117
  %20 = call ptr %19(i64 noundef 1, i64 noundef 312)
  store ptr %20, ptr %11, align 8, !tbaa !123
  %21 = load ptr, ptr %11, align 8, !tbaa !123
  %22 = icmp ne ptr %21, null
  br i1 %22, label %24, label %23

23:                                               ; preds = %18
  store i32 27, ptr %9, align 4, !tbaa !10
  br label %126

24:                                               ; preds = %18
  %25 = load ptr, ptr %6, align 8, !tbaa !109
  %26 = getelementptr inbounds nuw %struct.connectdata, ptr %25, i32 0, i32 55
  %27 = load i8, ptr %26, align 2, !tbaa !166
  %28 = zext i8 %27 to i32
  %29 = load ptr, ptr %11, align 8, !tbaa !123
  %30 = getelementptr inbounds nuw %struct.cf_socket_ctx, ptr %29, i32 0, i32 0
  store i32 %28, ptr %30, align 8, !tbaa !147
  %31 = load ptr, ptr %8, align 8, !tbaa !25
  %32 = load i32, ptr %31, align 4, !tbaa !10
  %33 = load ptr, ptr %11, align 8, !tbaa !123
  %34 = getelementptr inbounds nuw %struct.cf_socket_ctx, ptr %33, i32 0, i32 2
  store i32 %32, ptr %34, align 8, !tbaa !137
  %35 = load ptr, ptr %11, align 8, !tbaa !123
  %36 = getelementptr inbounds nuw %struct.cf_socket_ctx, ptr %35, i32 0, i32 8
  %37 = load i8, ptr %36, align 4
  %38 = and i8 %37, -3
  %39 = or i8 %38, 2
  store i8 %39, ptr %36, align 4
  %40 = load ptr, ptr %11, align 8, !tbaa !123
  %41 = getelementptr inbounds nuw %struct.cf_socket_ctx, ptr %40, i32 0, i32 8
  %42 = load i8, ptr %41, align 4
  %43 = and i8 %42, -5
  %44 = or i8 %43, 0
  store i8 %44, ptr %41, align 4
  %45 = load ptr, ptr %11, align 8, !tbaa !123
  %46 = call i32 @Curl_cf_create(ptr noundef %10, ptr noundef @Curl_cft_tcp_accept, ptr noundef %45)
  store i32 %46, ptr %9, align 4, !tbaa !10
  %47 = load i32, ptr %9, align 4, !tbaa !10
  %48 = icmp ne i32 %47, 0
  br i1 %48, label %49, label %50

49:                                               ; preds = %24
  br label %126

50:                                               ; preds = %24
  %51 = load ptr, ptr %5, align 8, !tbaa !23
  %52 = load ptr, ptr %6, align 8, !tbaa !109
  %53 = load i32, ptr %7, align 4, !tbaa !10
  %54 = load ptr, ptr %10, align 8, !tbaa !118
  call void @Curl_conn_cf_add(ptr noundef %51, ptr noundef %52, i32 noundef %53, ptr noundef %54)
  %55 = load ptr, ptr %11, align 8, !tbaa !123
  %56 = getelementptr inbounds nuw %struct.cf_socket_ctx, ptr %55, i32 0, i32 4
  call void @llvm.lifetime.start.p0(i64 16, ptr %12) #9
  %57 = call { i64, i32 } @Curl_now()
  %58 = getelementptr inbounds nuw { i64, i32 }, ptr %12, i32 0, i32 0
  %59 = extractvalue { i64, i32 } %57, 0
  store i64 %59, ptr %58, align 8
  %60 = getelementptr inbounds nuw { i64, i32 }, ptr %12, i32 0, i32 1
  %61 = extractvalue { i64, i32 } %57, 1
  store i32 %61, ptr %60, align 8
  call void @llvm.memcpy.p0.p0.i64(ptr align 8 %56, ptr align 8 %12, i64 16, i1 false), !tbaa.struct !141
  call void @llvm.lifetime.end.p0(i64 16, ptr %12) #9
  %62 = load ptr, ptr %11, align 8, !tbaa !123
  %63 = getelementptr inbounds nuw %struct.cf_socket_ctx, ptr %62, i32 0, i32 2
  %64 = load i32, ptr %63, align 8, !tbaa !137
  %65 = load ptr, ptr %6, align 8, !tbaa !109
  %66 = getelementptr inbounds nuw %struct.connectdata, ptr %65, i32 0, i32 24
  %67 = load i32, ptr %7, align 4, !tbaa !10
  %68 = sext i32 %67 to i64
  %69 = getelementptr inbounds [2 x i32], ptr %66, i64 0, i64 %68
  store i32 %64, ptr %69, align 4, !tbaa !10
  %70 = load ptr, ptr %10, align 8, !tbaa !118
  %71 = load ptr, ptr %5, align 8, !tbaa !23
  %72 = call i32 @set_local_ip(ptr noundef %70, ptr noundef %71)
  br label %73

73:                                               ; preds = %50
  %74 = load ptr, ptr %5, align 8, !tbaa !23
  %75 = icmp ne ptr %74, null
  br i1 %75, label %76, label %123

76:                                               ; preds = %73
  %77 = load ptr, ptr %5, align 8, !tbaa !23
  %78 = getelementptr inbounds nuw %struct.Curl_easy, ptr %77, i32 0, i32 16
  %79 = getelementptr inbounds nuw %struct.UserDefined, ptr %78, i32 0, i32 119
  %80 = load i64, ptr %79, align 2
  %81 = lshr i64 %80, 31
  %82 = and i64 %81, 1
  %83 = trunc i64 %82 to i32
  %84 = icmp ne i32 %83, 0
  br i1 %84, label %85, label %123

85:                                               ; preds = %76
  %86 = load ptr, ptr %5, align 8, !tbaa !23
  %87 = getelementptr inbounds nuw %struct.Curl_easy, ptr %86, i32 0, i32 21
  %88 = getelementptr inbounds nuw %struct.UrlState, ptr %87, i32 0, i32 50
  %89 = load ptr, ptr %88, align 8, !tbaa !125
  %90 = icmp ne ptr %89, null
  br i1 %90, label %91, label %99

91:                                               ; preds = %85
  %92 = load ptr, ptr %5, align 8, !tbaa !23
  %93 = getelementptr inbounds nuw %struct.Curl_easy, ptr %92, i32 0, i32 21
  %94 = getelementptr inbounds nuw %struct.UrlState, ptr %93, i32 0, i32 50
  %95 = load ptr, ptr %94, align 8, !tbaa !125
  %96 = getelementptr inbounds nuw %struct.curl_trc_feat, ptr %95, i32 0, i32 1
  %97 = load i32, ptr %96, align 8, !tbaa !126
  %98 = icmp sge i32 %97, 1
  br i1 %98, label %99, label %123

99:                                               ; preds = %91, %85
  %100 = load ptr, ptr %10, align 8, !tbaa !118
  %101 = icmp ne ptr %100, null
  br i1 %101, label %102, label %123

102:                                              ; preds = %99
  %103 = load ptr, ptr %10, align 8, !tbaa !118
  %104 = getelementptr inbounds nuw %struct.Curl_cfilter, ptr %103, i32 0, i32 0
  %105 = load ptr, ptr %104, align 8, !tbaa !128
  %106 = getelementptr inbounds nuw %struct.Curl_cftype, ptr %105, i32 0, i32 2
  %107 = load i32, ptr %106, align 4, !tbaa !129
  %108 = icmp sge i32 %107, 1
  br i1 %108, label %109, label %123

109:                                              ; preds = %102
  %110 = load ptr, ptr %5, align 8, !tbaa !23
  %111 = load ptr, ptr %10, align 8, !tbaa !118
  %112 = load ptr, ptr %11, align 8, !tbaa !123
  %113 = getelementptr inbounds nuw %struct.cf_socket_ctx, ptr %112, i32 0, i32 2
  %114 = load i32, ptr %113, align 8, !tbaa !137
  %115 = load ptr, ptr %11, align 8, !tbaa !123
  %116 = getelementptr inbounds nuw %struct.cf_socket_ctx, ptr %115, i32 0, i32 3
  %117 = getelementptr inbounds nuw %struct.ip_quadruple, ptr %116, i32 0, i32 1
  %118 = getelementptr inbounds [46 x i8], ptr %117, i64 0, i64 0
  %119 = load ptr, ptr %11, align 8, !tbaa !123
  %120 = getelementptr inbounds nuw %struct.cf_socket_ctx, ptr %119, i32 0, i32 3
  %121 = getelementptr inbounds nuw %struct.ip_quadruple, ptr %120, i32 0, i32 3
  %122 = load i32, ptr %121, align 4, !tbaa !140
  call void (ptr, ptr, ptr, ...) @Curl_trc_cf_infof(ptr noundef %110, ptr noundef %111, ptr noundef @.str.4, i32 noundef %114, ptr noundef %118, i32 noundef %122)
  br label %123

123:                                              ; preds = %109, %102, %99, %91, %76, %73
  br label %124

124:                                              ; preds = %123
  br label %125

125:                                              ; preds = %124
  br label %126

126:                                              ; preds = %125, %49, %23
  %127 = load i32, ptr %9, align 4, !tbaa !10
  %128 = icmp ne i32 %127, 0
  br i1 %128, label %129, label %140

129:                                              ; preds = %126
  br label %130

130:                                              ; preds = %129
  %131 = load ptr, ptr @Curl_cfree, align 8, !tbaa !117
  %132 = load ptr, ptr %10, align 8, !tbaa !118
  call void %131(ptr noundef %132)
  store ptr null, ptr %10, align 8, !tbaa !118
  br label %133

133:                                              ; preds = %130
  br label %134

134:                                              ; preds = %133
  br label %135

135:                                              ; preds = %134
  %136 = load ptr, ptr @Curl_cfree, align 8, !tbaa !117
  %137 = load ptr, ptr %11, align 8, !tbaa !123
  call void %136(ptr noundef %137)
  store ptr null, ptr %11, align 8, !tbaa !123
  br label %138

138:                                              ; preds = %135
  br label %139

139:                                              ; preds = %138
  br label %140

140:                                              ; preds = %139, %126
  %141 = load i32, ptr %9, align 4, !tbaa !10
  call void @llvm.lifetime.end.p0(i64 8, ptr %11) #9
  call void @llvm.lifetime.end.p0(i64 8, ptr %10) #9
  call void @llvm.lifetime.end.p0(i64 4, ptr %9) #9
  ret i32 %141
}