; Function Attrs: nounwind uwtable
define hidden i32 @Curl_conn_tcp_listen_set(ptr noundef %0, ptr noundef %1, i32 noundef %2, ptr noundef readonly captures(none) %3) local_unnamed_addr #2 {
  %5 = alloca ptr, align 8
  call void @llvm.lifetime.start.p0(i64 8, ptr nonnull %5) #13
  store ptr null, ptr %5, align 8, !tbaa !142
  tail call void @Curl_conn_cf_discard_all(ptr noundef %0, ptr noundef %1, i32 noundef %2) #13
  %6 = load ptr, ptr @Curl_ccalloc, align 8, !tbaa !103
  %7 = tail call ptr %6(i64 noundef 1, i64 noundef 312) #13
  %.not = icmp eq ptr %7, null
  br i1 %.not, label %55, label %8

8:                                                ; preds = %4
  %9 = getelementptr inbounds nuw i8, ptr %1, i64 1410
  %10 = load i8, ptr %9, align 2, !tbaa !147
  %11 = zext i8 %10 to i32
  store i32 %11, ptr %7, align 8, !tbaa !128
  %12 = load i32, ptr %3, align 4, !tbaa !87
  %13 = getelementptr inbounds nuw i8, ptr %7, i64 152
  store i32 %12, ptr %13, align 8, !tbaa !116
  %14 = getelementptr inbounds nuw i8, ptr %7, i64 308
  %15 = load i8, ptr %14, align 4
  %16 = and i8 %15, -7
  %17 = or disjoint i8 %16, 2
  store i8 %17, ptr %14, align 4
  %18 = call i32 @Curl_cf_create(ptr noundef nonnull %5, ptr noundef nonnull @Curl_cft_tcp_accept, ptr noundef nonnull %7) #13
  %.not35 = icmp eq i32 %18, 0
  %.pre = load ptr, ptr %5, align 8, !tbaa !142
  br i1 %.not35, label %19, label %55

19:                                               ; preds = %8
  call void @Curl_conn_cf_add(ptr noundef %0, ptr noundef nonnull %1, i32 noundef %2, ptr noundef %.pre) #13
  %20 = getelementptr inbounds nuw i8, ptr %7, i64 256
  %21 = call { i64, i32 } @Curl_now() #13
  %22 = extractvalue { i64, i32 } %21, 0
  %23 = extractvalue { i64, i32 } %21, 1
  store i64 %22, ptr %20, align 8, !tbaa !120
  %.sroa.4.0..sroa_idx = getelementptr inbounds nuw i8, ptr %7, i64 264
  store i32 %23, ptr %.sroa.4.0..sroa_idx, align 8, !tbaa !87
  %24 = load i32, ptr %13, align 8, !tbaa !116
  %25 = getelementptr inbounds nuw i8, ptr %1, i64 568
  %26 = sext i32 %2 to i64
  %27 = getelementptr inbounds [2 x i32], ptr %25, i64 0, i64 %26
  store i32 %24, ptr %27, align 4, !tbaa !87
  %28 = load ptr, ptr %5, align 8, !tbaa !142
  %29 = getelementptr i8, ptr %28, i64 16
  %.val = load ptr, ptr %29, align 8, !tbaa !104
  call fastcc void @set_local_ip(ptr %.val, ptr noundef %0)
  %.not36 = icmp eq ptr %0, null
  br i1 %.not36, label %.thread, label %30

30:                                               ; preds = %19
  %31 = getelementptr inbounds nuw i8, ptr %0, i64 2658
  %32 = load i64, ptr %31, align 2
  %33 = and i64 %32, 2147483648
  %.not37 = icmp eq i64 %33, 0
  br i1 %.not37, label %.thread, label %34

34:                                               ; preds = %30
  %35 = getelementptr inbounds nuw i8, ptr %0, i64 4864
  %36 = load ptr, ptr %35, align 8, !tbaa !108
  %.not38 = icmp eq ptr %36, null
  br i1 %.not38, label %43, label %37

37:                                               ; preds = %34
  %38 = getelementptr inbounds nuw i8, ptr %36, i64 8
  %39 = load i32, ptr %38, align 8, !tbaa !109
  %40 = icmp sgt i32 %39, 0
  %41 = load ptr, ptr %5, align 8
  %42 = icmp ne ptr %41, null
  %or.cond = select i1 %40, i1 %42, i1 false
  br i1 %or.cond, label %44, label %.thread

43:                                               ; preds = %34
  %.old = load ptr, ptr %5, align 8, !tbaa !142
  %.old1.not = icmp eq ptr %.old, null
  br i1 %.old1.not, label %.thread, label %44

44:                                               ; preds = %37, %43
  %45 = phi ptr [ %41, %37 ], [ %.old, %43 ]
  %46 = load ptr, ptr %45, align 8, !tbaa !111
  %47 = getelementptr inbounds nuw i8, ptr %46, i64 12
  %48 = load i32, ptr %47, align 4, !tbaa !112
  %49 = icmp sgt i32 %48, 0
  br i1 %49, label %50, label %.thread

50:                                               ; preds = %44
  %51 = load i32, ptr %13, align 8, !tbaa !116
  %52 = getelementptr inbounds nuw i8, ptr %7, i64 202
  %53 = getelementptr inbounds nuw i8, ptr %7, i64 252
  %54 = load i32, ptr %53, align 4, !tbaa !119
  call void (ptr, ptr, ptr, ...) @Curl_trc_cf_infof(ptr noundef nonnull %0, ptr noundef nonnull %45, ptr noundef nonnull @.str.4, i32 noundef %51, ptr noundef nonnull %52, i32 noundef %54) #13
  br label %.thread

55:                                               ; preds = %8, %4
  %56 = phi ptr [ %.pre, %8 ], [ null, %4 ]
  %.0 = phi i32 [ %18, %8 ], [ 27, %4 ]
  %57 = load ptr, ptr @Curl_cfree, align 8, !tbaa !103
  call void %57(ptr noundef %56) #13
  store ptr null, ptr %5, align 8, !tbaa !142
  %58 = load ptr, ptr @Curl_cfree, align 8, !tbaa !103
  call void %58(ptr noundef %7) #13
  br label %.thread

.thread:                                          ; preds = %19, %30, %43, %37, %44, %50, %55
  %.042 = phi i32 [ %.0, %55 ], [ 0, %50 ], [ 0, %44 ], [ 0, %37 ], [ 0, %43 ], [ 0, %30 ], [ 0, %19 ]
  call void @llvm.lifetime.end.p0(i64 8, ptr nonnull %5) #13
  ret i32 %.042
}